; ModuleID = '38/139.c'
source_filename = "38/139.c"
target datalayout = "e-m:e-p270:32:32-p271:32:32-p272:64:64-i64:64-f80:128-n8:16:32:64-S128"
target triple = "x86_64-pc-linux-gnu"

@.str = private unnamed_addr constant [3 x i8] c"%d\00", align 1
@.str.1 = private unnamed_addr constant [4 x i8] c"%lf\00", align 1
@.str.2 = private unnamed_addr constant [7 x i8] c"%.5lf\0A\00", align 1

; Function Attrs: noinline nounwind uwtable
define dso_local void @main() #0 {
  %1 = alloca i32, align 4
  %2 = alloca i32, align 4
  %3 = alloca i32, align 4
  %4 = alloca i32, align 4
  %5 = alloca [1001 x double], align 16
  %6 = alloca double, align 8
  %7 = alloca double, align 8
  %8 = alloca double, align 8
  %9 = bitcast [1001 x double]* %5 to i8*
  call void @llvm.memset.p0i8.i64(i8* align 16 %9, i8 0, i64 8008, i1 false)
  %10 = call i32 (i8*, ...) @__isoc99_scanf(i8* getelementptr inbounds ([3 x i8], [3 x i8]* @.str, i64 0, i64 0), i32* %3)
  store i32 0, i32* %1, align 4
  br label %11

11:                                               ; preds = %75, %0
  %12 = load i32, i32* %1, align 4
  %13 = load i32, i32* %3, align 4
  %14 = icmp slt i32 %12, %13
  br i1 %14, label %15, label %78

15:                                               ; preds = %11
  %16 = call i32 (i8*, ...) @__isoc99_scanf(i8* getelementptr inbounds ([3 x i8], [3 x i8]* @.str, i64 0, i64 0), i32* %4)
  store double 0.000000e+00, double* %7, align 8
  store i32 0, i32* %2, align 4
  br label %17

17:                                               ; preds = %32, %15
  %18 = load i32, i32* %2, align 4
  %19 = load i32, i32* %4, align 4
  %20 = icmp slt i32 %18, %19
  br i1 %20, label %21, label %35

21:                                               ; preds = %17
  %22 = load i32, i32* %2, align 4
  %23 = sext i32 %22 to i64
  %24 = getelementptr inbounds [1001 x double], [1001 x double]* %5, i64 0, i64 %23
  %25 = call i32 (i8*, ...) @__isoc99_scanf(i8* getelementptr inbounds ([4 x i8], [4 x i8]* @.str.1, i64 0, i64 0), double* %24)
  %26 = load double, double* %7, align 8
  %27 = load i32, i32* %2, align 4
  %28 = sext i32 %27 to i64
  %29 = getelementptr inbounds [1001 x double], [1001 x double]* %5, i64 0, i64 %28
  %30 = load double, double* %29, align 8
  %31 = fadd double %26, %30
  store double %31, double* %7, align 8
  br label %32

32:                                               ; preds = %21
  %33 = load i32, i32* %2, align 4
  %34 = add nsw i32 %33, 1
  store i32 %34, i32* %2, align 4
  br label %17

35:                                               ; preds = %17
  %36 = load double, double* %7, align 8
  %37 = load i32, i32* %4, align 4
  %38 = sitofp i32 %37 to double
  %39 = fdiv double %36, %38
  store double %39, double* %6, align 8
  %40 = load i32, i32* %4, align 4
  %41 = sext i32 %40 to i64
  %42 = getelementptr inbounds [1001 x double], [1001 x double]* %5, i64 0, i64 %41
  store double -1.000000e+00, double* %42, align 8
  store double 0.000000e+00, double* %7, align 8
  store i32 0, i32* %2, align 4
  br label %43

43:                                               ; preds = %63, %35
  %44 = load i32, i32* %2, align 4
  %45 = load i32, i32* %4, align 4
  %46 = icmp slt i32 %44, %45
  br i1 %46, label %47, label %66

47:                                               ; preds = %43
  %48 = load double, double* %7, align 8
  %49 = load i32, i32* %2, align 4
  %50 = sext i32 %49 to i64
  %51 = getelementptr inbounds [1001 x double], [1001 x double]* %5, i64 0, i64 %50
  %52 = load double, double* %51, align 8
  %53 = load double, double* %6, align 8
  %54 = fsub double %52, %53
  %55 = load i32, i32* %2, align 4
  %56 = sext i32 %55 to i64
  %57 = getelementptr inbounds [1001 x double], [1001 x double]* %5, i64 0, i64 %56
  %58 = load double, double* %57, align 8
  %59 = load double, double* %6, align 8
  %60 = fsub double %58, %59
  %61 = fmul double %54, %60
  %62 = fadd double %48, %61
  store double %62, double* %7, align 8
  br label %63

63:                                               ; preds = %47
  %64 = load i32, i32* %2, align 4
  %65 = add nsw i32 %64, 1
  store i32 %65, i32* %2, align 4
  br label %43

66:                                               ; preds = %43
  %67 = load double, double* %7, align 8
  %68 = load i32, i32* %4, align 4
  %69 = sitofp i32 %68 to double
  %70 = fdiv double %67, %69
  store double %70, double* %8, align 8
  %71 = load double, double* %8, align 8
  %72 = call double @sqrt(double %71) #4
  store double %72, double* %8, align 8
  %73 = load double, double* %8, align 8
  %74 = call i32 (i8*, ...) @printf(i8* getelementptr inbounds ([7 x i8], [7 x i8]* @.str.2, i64 0, i64 0), double %73)
  br label %75

75:                                               ; preds = %66
  %76 = load i32, i32* %1, align 4
  %77 = add nsw i32 %76, 1
  store i32 %77, i32* %1, align 4
  br label %11

78:                                               ; preds = %11
  ret void
}

; Function Attrs: argmemonly nounwind willreturn
declare void @llvm.memset.p0i8.i64(i8* nocapture writeonly, i8, i64, i1 immarg) #1

declare dso_local i32 @__isoc99_scanf(i8*, ...) #2

; Function Attrs: nounwind
declare dso_local double @sqrt(double) #3

declare dso_local i32 @printf(i8*, ...) #2


!llvm.module.flags = !{!0}
!llvm.ident = !{!1}

!0 = !{i32 1, !"wchar_size", i32 4}
!1 = !{!"clang version 10.0.0-4ubuntu1 "}
